target datalayout = "e-m:e-p270:32:32-p271:32:32-p272:64:64-i64:64-i128:128-f80:128-n8:16:32:64-S128"
target triple = "x86_64-pc-linux-gnu"

%struct.FunctionCallInfoBaseData = type { ptr, ptr, ptr, i32, i8, i16, [0 x %struct.NullableDatum] }
%struct.NullableDatum = type { i64, i8 }
%struct.TSQueryData = type { i32, i32, [0 x i8] }
%struct.QTNode = type { ptr, i32, i32, ptr, i32, ptr }
%struct.QueryOperator = type { i8, i8, i16, i32 }

; Function Attrs: inlinehint nounwind uwtable
define internal ptr @DatumGetPointer(i64 noundef %0) #2 {
  %2 = alloca i64, align 8
  store i64 %0, ptr %2, align 8
  %3 = load i64, ptr %2, align 8
  %4 = inttoptr i64 %3 to ptr
  ret ptr %4
}

; Function Attrs: inlinehint nounwind uwtable
define internal i64 @PointerGetDatum(ptr noundef %0) #2 {
  %2 = alloca ptr, align 8
  store ptr %0, ptr %2, align 8
  %3 = load ptr, ptr %2, align 8
  %4 = ptrtoint ptr %3 to i64
  ret i64 %4
}

; Function Attrs: inlinehint nounwind uwtable
define internal ptr @DatumGetTSQueryCopy(i64 noundef %0) #2 {
  %2 = alloca i64, align 8
  store i64 %0, ptr %2, align 8
  %3 = load i64, ptr %2, align 8
  %4 = call ptr @DatumGetPointer(i64 noundef %3)
  %5 = call ptr @pg_detoast_datum_copy(ptr noundef %4)
  ret ptr %5
}

; Function Attrs: nounwind uwtable
define dso_local i64 @tsquery_not(ptr noundef %0) #0 {
  %2 = alloca i64, align 8
  %3 = alloca ptr, align 8
  %4 = alloca ptr, align 8
  %5 = alloca ptr, align 8
  %6 = alloca ptr, align 8
  %7 = alloca i32, align 4
  store ptr %0, ptr %3, align 8
  call void @llvm.lifetime.start.p0(i64 8, ptr %4) #7
  %8 = load ptr, ptr %3, align 8
  %9 = getelementptr inbounds nuw %struct.FunctionCallInfoBaseData, ptr %8, i32 0, i32 6
  %10 = getelementptr inbounds [0 x %struct.NullableDatum], ptr %9, i64 0, i64 0
  %11 = getelementptr inbounds nuw %struct.NullableDatum, ptr %10, i32 0, i32 0
  %12 = load i64, ptr %11, align 8
  %13 = call ptr @DatumGetTSQueryCopy(i64 noundef %12)
  store ptr %13, ptr %4, align 8
  call void @llvm.lifetime.start.p0(i64 8, ptr %5) #7
  call void @llvm.lifetime.start.p0(i64 8, ptr %6) #7
  %14 = load ptr, ptr %4, align 8
  %15 = getelementptr inbounds nuw %struct.TSQueryData, ptr %14, i32 0, i32 1
  %16 = load i32, ptr %15, align 4
  %17 = icmp eq i32 %16, 0
  br i1 %17, label %18, label %21

18:                                               ; preds = %1
  %19 = load ptr, ptr %4, align 8
  %20 = call i64 @PointerGetDatum(ptr noundef %19)
  store i64 %20, ptr %2, align 8
  store i32 1, ptr %7, align 4
  br label %76

21:                                               ; preds = %1
  %22 = call ptr @palloc0(i64 noundef 40)
  store ptr %22, ptr %5, align 8
  %23 = load ptr, ptr %5, align 8
  %24 = getelementptr inbounds nuw %struct.QTNode, ptr %23, i32 0, i32 1
  %25 = load i32, ptr %24, align 8
  %26 = or i32 %25, 1
  store i32 %26, ptr %24, align 8
  %27 = call ptr @palloc0(i64 noundef 12)
  %28 = load ptr, ptr %5, align 8
  %29 = getelementptr inbounds nuw %struct.QTNode, ptr %28, i32 0, i32 0
  store ptr %27, ptr %29, align 8
  %30 = load ptr, ptr %5, align 8
  %31 = getelementptr inbounds nuw %struct.QTNode, ptr %30, i32 0, i32 0
  %32 = load ptr, ptr %31, align 8
  store i8 2, ptr %32, align 4
  %33 = load ptr, ptr %5, align 8
  %34 = getelementptr inbounds nuw %struct.QTNode, ptr %33, i32 0, i32 0
  %35 = load ptr, ptr %34, align 8
  %36 = getelementptr inbounds nuw %struct.QueryOperator, ptr %35, i32 0, i32 1
  store i8 1, ptr %36, align 1
  %37 = call ptr @palloc0(i64 noundef 8)
  %38 = load ptr, ptr %5, align 8
  %39 = getelementptr inbounds nuw %struct.QTNode, ptr %38, i32 0, i32 5
  store ptr %37, ptr %39, align 8
  %40 = load ptr, ptr %4, align 8
  %41 = getelementptr inbounds nuw i8, ptr %40, i64 8
  %42 = load ptr, ptr %4, align 8
  %43 = getelementptr inbounds nuw i8, ptr %42, i64 8
  %44 = load ptr, ptr %4, align 8
  %45 = getelementptr inbounds nuw %struct.TSQueryData, ptr %44, i32 0, i32 1
  %46 = load i32, ptr %45, align 4
  %47 = sext i32 %46 to i64
  %48 = mul i64 %47, 12
  %49 = getelementptr inbounds nuw i8, ptr %43, i64 %48
  %50 = call ptr @QT2QTN(ptr noundef %41, ptr noundef %49)
  %51 = load ptr, ptr %5, align 8
  %52 = getelementptr inbounds nuw %struct.QTNode, ptr %51, i32 0, i32 5
  %53 = load ptr, ptr %52, align 8
  %54 = getelementptr inbounds ptr, ptr %53, i64 0
  store ptr %50, ptr %54, align 8
  %55 = load ptr, ptr %5, align 8
  %56 = getelementptr inbounds nuw %struct.QTNode, ptr %55, i32 0, i32 2
  store i32 1, ptr %56, align 4
  %57 = load ptr, ptr %5, align 8
  %58 = call ptr @QTN2QT(ptr noundef %57)
  store ptr %58, ptr %6, align 8
  %59 = load ptr, ptr %5, align 8
  call void @QTNFree(ptr noundef %59)
  br label %60

60:                                               ; preds = %21
  %61 = load ptr, ptr %4, align 8
  %62 = load ptr, ptr %3, align 8
  %63 = getelementptr inbounds nuw %struct.FunctionCallInfoBaseData, ptr %62, i32 0, i32 6
  %64 = getelementptr inbounds [0 x %struct.NullableDatum], ptr %63, i64 0, i64 0
  %65 = getelementptr inbounds nuw %struct.NullableDatum, ptr %64, i32 0, i32 0
  %66 = load i64, ptr %65, align 8
  %67 = call ptr @DatumGetPointer(i64 noundef %66)
  %68 = icmp ne ptr %61, %67
  br i1 %68, label %69, label %71

69:                                               ; preds = %60
  %70 = load ptr, ptr %4, align 8
  call void @pfree(ptr noundef %70)
  br label %71

71:                                               ; preds = %69, %60
  br label %72

72:                                               ; preds = %71
  br label %73

73:                                               ; preds = %72
  %74 = load ptr, ptr %6, align 8
  %75 = call i64 @PointerGetDatum(ptr noundef %74)
  store i64 %75, ptr %2, align 8
  store i32 1, ptr %7, align 4
  br label %76

76:                                               ; preds = %73, %18
  call void @llvm.lifetime.end.p0(i64 8, ptr %6) #7
  call void @llvm.lifetime.end.p0(i64 8, ptr %5) #7
  call void @llvm.lifetime.end.p0(i64 8, ptr %4) #7
  %77 = load i64, ptr %2, align 8
  ret i64 %77
}