; Function Attrs: nounwind uwtable
define dso_local i64 @tsquery_not(ptr noundef readonly captures(none) %0) local_unnamed_addr #2 {
  %2 = getelementptr inbounds nuw i8, ptr %0, i64 32
  %3 = load i64, ptr %2, align 8
  %4 = inttoptr i64 %3 to ptr
  %5 = tail call ptr @pg_detoast_datum_copy(ptr noundef %4) #9
  %6 = getelementptr inbounds nuw i8, ptr %5, i64 4
  %7 = load i32, ptr %6, align 4
  %8 = icmp eq i32 %7, 0
  br i1 %8, label %31, label %9

9:                                                ; preds = %1
  %10 = tail call ptr @palloc0(i64 noundef 40) #9
  %11 = getelementptr inbounds nuw i8, ptr %10, i64 8
  %12 = load i32, ptr %11, align 8
  %13 = or i32 %12, 1
  store i32 %13, ptr %11, align 8
  %14 = tail call ptr @palloc0(i64 noundef 12) #9
  store ptr %14, ptr %10, align 8
  store i8 2, ptr %14, align 4
  %15 = load ptr, ptr %10, align 8
  %16 = getelementptr inbounds nuw i8, ptr %15, i64 1
  store i8 1, ptr %16, align 1
  %17 = tail call ptr @palloc0(i64 noundef 8) #9
  %18 = getelementptr inbounds nuw i8, ptr %10, i64 32
  store ptr %17, ptr %18, align 8
  %19 = getelementptr inbounds nuw i8, ptr %5, i64 8
  %20 = load i32, ptr %6, align 4
  %21 = sext i32 %20 to i64
  %22 = mul nsw i64 %21, 12
  %23 = getelementptr inbounds nuw i8, ptr %19, i64 %22
  %24 = tail call ptr @QT2QTN(ptr noundef nonnull %19, ptr noundef nonnull %23) #9
  %25 = load ptr, ptr %18, align 8
  store ptr %24, ptr %25, align 8
  %26 = getelementptr inbounds nuw i8, ptr %10, i64 12
  store i32 1, ptr %26, align 4
  %27 = tail call ptr @QTN2QT(ptr noundef nonnull %10) #9
  tail call void @QTNFree(ptr noundef nonnull %10) #9
  %28 = load i64, ptr %2, align 8
  %29 = inttoptr i64 %28 to ptr
  %.not = icmp eq ptr %5, %29
  br i1 %.not, label %31, label %30

30:                                               ; preds = %9
  tail call void @pfree(ptr noundef nonnull %5) #9
  br label %31

31:                                               ; preds = %9, %30, %1
  %.0.in = phi ptr [ %5, %1 ], [ %27, %30 ], [ %27, %9 ]
  %.0 = ptrtoint ptr %.0.in to i64
  ret i64 %.0
}